target datalayout = "e-m:e-p270:32:32-p271:32:32-p272:64:64-i64:64-i128:128-f80:128-n8:16:32:64-S128"
target triple = "x86_64-pc-linux-gnu"

%struct.Argon2_Context = type { ptr, i32, ptr, i32, ptr, i32, ptr, i32, ptr, i32, i32, i32, i32, i32, i32 }

; Function Attrs: alwaysinline nounwind
define internal ptr @memcpy.inline(ptr noalias nonnull %0, ptr noalias nonnull %1, i64 %2) #5 {
  %4 = alloca ptr, align 8
  %5 = alloca ptr, align 8
  %6 = alloca i64, align 8
  store ptr %0, ptr %4, align 8
  store ptr %1, ptr %5, align 8
  store i64 %2, ptr %6, align 8
  %7 = load ptr, ptr %4, align 8
  %8 = load ptr, ptr %5, align 8
  %9 = load i64, ptr %6, align 8
  %10 = load ptr, ptr %4, align 8
  %11 = call i64 @llvm.objectsize.i64.p0(ptr %10, i1 false, i1 true, i1 true)
  %12 = call ptr @__memcpy_chk(ptr noundef %7, ptr noundef %8, i64 noundef %9, i64 noundef %11) #8
  ret ptr %12
}

; Function Attrs: nounwind ssp uwtable
define hidden i32 @_sodium_argon2_hash(i32 noundef %0, i32 noundef %1, i32 noundef %2, ptr noundef %3, i64 noundef %4, ptr noundef %5, i64 noundef %6, ptr noundef %7, i64 noundef %8, ptr noundef %9, i64 noundef %10, i32 noundef %11) #0 {
  %13 = alloca i32, align 4
  %14 = alloca i32, align 4
  %15 = alloca i32, align 4
  %16 = alloca i32, align 4
  %17 = alloca ptr, align 8
  %18 = alloca i64, align 8
  %19 = alloca ptr, align 8
  %20 = alloca i64, align 8
  %21 = alloca ptr, align 8
  %22 = alloca i64, align 8
  %23 = alloca ptr, align 8
  %24 = alloca i64, align 8
  %25 = alloca i32, align 4
  %26 = alloca %struct.Argon2_Context, align 8
  %27 = alloca i32, align 4
  %28 = alloca ptr, align 8
  %29 = alloca i32, align 4
  store i32 %0, ptr %14, align 4
  store i32 %1, ptr %15, align 4
  store i32 %2, ptr %16, align 4
  store ptr %3, ptr %17, align 8
  store i64 %4, ptr %18, align 8
  store ptr %5, ptr %19, align 8
  store i64 %6, ptr %20, align 8
  store ptr %7, ptr %21, align 8
  store i64 %8, ptr %22, align 8
  store ptr %9, ptr %23, align 8
  store i64 %10, ptr %24, align 8
  store i32 %11, ptr %25, align 4
  call void @llvm.lifetime.start.p0(i64 96, ptr %26) #8
  call void @llvm.lifetime.start.p0(i64 4, ptr %27) #8
  call void @llvm.lifetime.start.p0(i64 8, ptr %28) #8
  %30 = load ptr, ptr %21, align 8
  %31 = icmp ne ptr %30, null
  br i1 %31, label %32, label %35

32:                                               ; preds = %12
  %33 = load ptr, ptr %21, align 8
  %34 = load i64, ptr %22, align 8
  call void @randombytes_buf(ptr noundef %33, i64 noundef %34)
  br label %35

35:                                               ; preds = %32, %12
  %36 = load i64, ptr %18, align 8
  %37 = icmp ugt i64 %36, 4294967295
  br i1 %37, label %38, label %39

38:                                               ; preds = %35
  store i32 -5, ptr %13, align 4
  store i32 1, ptr %29, align 4
  br label %122

39:                                               ; preds = %35
  %40 = load i64, ptr %22, align 8
  %41 = icmp ugt i64 %40, 4294967295
  br i1 %41, label %42, label %43

42:                                               ; preds = %39
  store i32 -3, ptr %13, align 4
  store i32 1, ptr %29, align 4
  br label %122

43:                                               ; preds = %39
  %44 = load i64, ptr %20, align 8
  %45 = icmp ugt i64 %44, 4294967295
  br i1 %45, label %46, label %47

46:                                               ; preds = %43
  store i32 -7, ptr %13, align 4
  store i32 1, ptr %29, align 4
  br label %122

47:                                               ; preds = %43
  %48 = load i64, ptr %22, align 8
  %49 = call noalias ptr @malloc(i64 noundef %48) #9
  store ptr %49, ptr %28, align 8
  %50 = load ptr, ptr %28, align 8
  %51 = icmp ne ptr %50, null
  br i1 %51, label %53, label %52

52:                                               ; preds = %47
  store i32 -22, ptr %13, align 4
  store i32 1, ptr %29, align 4
  br label %122

53:                                               ; preds = %47
  %54 = load ptr, ptr %28, align 8
  %55 = getelementptr inbounds nuw %struct.Argon2_Context, ptr %26, i32 0, i32 0
  store ptr %54, ptr %55, align 8
  %56 = load i64, ptr %22, align 8
  %57 = trunc i64 %56 to i32
  %58 = getelementptr inbounds nuw %struct.Argon2_Context, ptr %26, i32 0, i32 1
  store i32 %57, ptr %58, align 8
  %59 = load ptr, ptr %17, align 8
  %60 = getelementptr inbounds nuw %struct.Argon2_Context, ptr %26, i32 0, i32 2
  store ptr %59, ptr %60, align 8
  %61 = load i64, ptr %18, align 8
  %62 = trunc i64 %61 to i32
  %63 = getelementptr inbounds nuw %struct.Argon2_Context, ptr %26, i32 0, i32 3
  store i32 %62, ptr %63, align 8
  %64 = load ptr, ptr %19, align 8
  %65 = getelementptr inbounds nuw %struct.Argon2_Context, ptr %26, i32 0, i32 4
  store ptr %64, ptr %65, align 8
  %66 = load i64, ptr %20, align 8
  %67 = trunc i64 %66 to i32
  %68 = getelementptr inbounds nuw %struct.Argon2_Context, ptr %26, i32 0, i32 5
  store i32 %67, ptr %68, align 8
  %69 = getelementptr inbounds nuw %struct.Argon2_Context, ptr %26, i32 0, i32 6
  store ptr null, ptr %69, align 8
  %70 = getelementptr inbounds nuw %struct.Argon2_Context, ptr %26, i32 0, i32 7
  store i32 0, ptr %70, align 8
  %71 = getelementptr inbounds nuw %struct.Argon2_Context, ptr %26, i32 0, i32 8
  store ptr null, ptr %71, align 8
  %72 = getelementptr inbounds nuw %struct.Argon2_Context, ptr %26, i32 0, i32 9
  store i32 0, ptr %72, align 8
  %73 = load i32, ptr %14, align 4
  %74 = getelementptr inbounds nuw %struct.Argon2_Context, ptr %26, i32 0, i32 10
  store i32 %73, ptr %74, align 4
  %75 = load i32, ptr %15, align 4
  %76 = getelementptr inbounds nuw %struct.Argon2_Context, ptr %26, i32 0, i32 11
  store i32 %75, ptr %76, align 8
  %77 = load i32, ptr %16, align 4
  %78 = getelementptr inbounds nuw %struct.Argon2_Context, ptr %26, i32 0, i32 12
  store i32 %77, ptr %78, align 4
  %79 = load i32, ptr %16, align 4
  %80 = getelementptr inbounds nuw %struct.Argon2_Context, ptr %26, i32 0, i32 13
  store i32 %79, ptr %80, align 8
  %81 = getelementptr inbounds nuw %struct.Argon2_Context, ptr %26, i32 0, i32 14
  store i32 0, ptr %81, align 4
  %82 = load i32, ptr %25, align 4
  %83 = call i32 @_sodium_argon2_ctx(ptr noundef %26, i32 noundef %82)
  store i32 %83, ptr %27, align 4
  %84 = load i32, ptr %27, align 4
  %85 = icmp ne i32 %84, 0
  br i1 %85, label %86, label %91

86:                                               ; preds = %53
  %87 = load ptr, ptr %28, align 8
  %88 = load i64, ptr %22, align 8
  call void @sodium_memzero(ptr noundef %87, i64 noundef %88)
  %89 = load ptr, ptr %28, align 8
  call void @free(ptr noundef %89) #8
  %90 = load i32, ptr %27, align 4
  store i32 %90, ptr %13, align 4
  store i32 1, ptr %29, align 4
  br label %122

91:                                               ; preds = %53
  %92 = load ptr, ptr %23, align 8
  %93 = icmp ne ptr %92, null
  br i1 %93, label %94, label %110

94:                                               ; preds = %91
  %95 = load i64, ptr %24, align 8
  %96 = icmp ne i64 %95, 0
  br i1 %96, label %97, label %110

97:                                               ; preds = %94
  %98 = load ptr, ptr %23, align 8
  %99 = load i64, ptr %24, align 8
  %100 = load i32, ptr %25, align 4
  %101 = call i32 @_sodium_argon2_encode_string(ptr noundef %98, i64 noundef %99, ptr noundef %26, i32 noundef %100)
  %102 = icmp ne i32 %101, 0
  br i1 %102, label %103, label %109

103:                                              ; preds = %97
  %104 = load ptr, ptr %28, align 8
  %105 = load i64, ptr %22, align 8
  call void @sodium_memzero(ptr noundef %104, i64 noundef %105)
  %106 = load ptr, ptr %23, align 8
  %107 = load i64, ptr %24, align 8
  call void @sodium_memzero(ptr noundef %106, i64 noundef %107)
  %108 = load ptr, ptr %28, align 8
  call void @free(ptr noundef %108) #8
  store i32 -31, ptr %13, align 4
  store i32 1, ptr %29, align 4
  br label %122

109:                                              ; preds = %97
  br label %110

110:                                              ; preds = %109, %94, %91
  %111 = load ptr, ptr %21, align 8
  %112 = icmp ne ptr %111, null
  br i1 %112, label %113, label %118

113:                                              ; preds = %110
  %114 = load ptr, ptr %21, align 8
  %115 = load ptr, ptr %28, align 8
  %116 = load i64, ptr %22, align 8
  %117 = call ptr @memcpy.inline(ptr noundef %114, ptr noundef %115, i64 noundef %116) #8
  br label %118

118:                                              ; preds = %113, %110
  %119 = load ptr, ptr %28, align 8
  %120 = load i64, ptr %22, align 8
  call void @sodium_memzero(ptr noundef %119, i64 noundef %120)
  %121 = load ptr, ptr %28, align 8
  call void @free(ptr noundef %121) #8
  store i32 0, ptr %13, align 4
  store i32 1, ptr %29, align 4
  br label %122

122:                                              ; preds = %118, %103, %86, %52, %46, %42, %38
  call void @llvm.lifetime.end.p0(i64 8, ptr %28) #8
  call void @llvm.lifetime.end.p0(i64 4, ptr %27) #8
  call void @llvm.lifetime.end.p0(i64 96, ptr %26) #8
  %123 = load i32, ptr %13, align 4
  ret i32 %123
}