; Function Attrs: nounwind ssp uwtable
define hidden i32 @_sodium_argon2_hash(i32 noundef %0, i32 noundef %1, i32 noundef %2, ptr noundef %3, i64 noundef %4, ptr noundef %5, i64 noundef %6, ptr noundef %7, i64 noundef %8, ptr noundef %9, i64 noundef %10, i32 noundef %11) local_unnamed_addr #0 {
  %13 = alloca %struct.Argon2_Context, align 8
  call void @llvm.lifetime.start.p0(i64 96, ptr nonnull %13) #9
  %.not = icmp eq ptr %7, null
  br i1 %.not, label %15, label %14

14:                                               ; preds = %12
  tail call void @randombytes_buf(ptr noundef nonnull %7, i64 noundef %8) #9
  br label %15

15:                                               ; preds = %14, %12
  %16 = icmp ugt i64 %4, 4294967295
  br i1 %16, label %52, label %17

17:                                               ; preds = %15
  %18 = icmp ugt i64 %8, 4294967295
  br i1 %18, label %52, label %19

19:                                               ; preds = %17
  %20 = icmp ugt i64 %6, 4294967295
  br i1 %20, label %52, label %21

21:                                               ; preds = %19
  %22 = tail call noalias ptr @malloc(i64 noundef %8) #10
  %.not50 = icmp eq ptr %22, null
  br i1 %.not50, label %52, label %23

23:                                               ; preds = %21
  store ptr %22, ptr %13, align 8
  %24 = trunc nuw i64 %8 to i32
  %25 = getelementptr inbounds nuw i8, ptr %13, i64 8
  store i32 %24, ptr %25, align 8
  %26 = getelementptr inbounds nuw i8, ptr %13, i64 16
  store ptr %3, ptr %26, align 8
  %27 = trunc nuw i64 %4 to i32
  %28 = getelementptr inbounds nuw i8, ptr %13, i64 24
  store i32 %27, ptr %28, align 8
  %29 = getelementptr inbounds nuw i8, ptr %13, i64 32
  store ptr %5, ptr %29, align 8
  %30 = trunc nuw i64 %6 to i32
  %31 = getelementptr inbounds nuw i8, ptr %13, i64 40
  store i32 %30, ptr %31, align 8
  %32 = getelementptr inbounds nuw i8, ptr %13, i64 48
  store ptr null, ptr %32, align 8
  %33 = getelementptr inbounds nuw i8, ptr %13, i64 56
  store i32 0, ptr %33, align 8
  %34 = getelementptr inbounds nuw i8, ptr %13, i64 64
  store ptr null, ptr %34, align 8
  %35 = getelementptr inbounds nuw i8, ptr %13, i64 72
  store i32 0, ptr %35, align 8
  %36 = getelementptr inbounds nuw i8, ptr %13, i64 76
  store i32 %0, ptr %36, align 4
  %37 = getelementptr inbounds nuw i8, ptr %13, i64 80
  store i32 %1, ptr %37, align 8
  %38 = getelementptr inbounds nuw i8, ptr %13, i64 84
  store i32 %2, ptr %38, align 4
  %39 = getelementptr inbounds nuw i8, ptr %13, i64 88
  store i32 %2, ptr %39, align 8
  %40 = getelementptr inbounds nuw i8, ptr %13, i64 92
  store i32 0, ptr %40, align 4
  %41 = call i32 @_sodium_argon2_ctx(ptr noundef nonnull %13, i32 noundef %11)
  %.not51 = icmp eq i32 %41, 0
  br i1 %.not51, label %43, label %42

42:                                               ; preds = %23
  call void @sodium_memzero(ptr noundef nonnull %22, i64 noundef %8) #9
  br label %.sink.split

43:                                               ; preds = %23
  %44 = icmp ne ptr %9, null
  %45 = icmp ne i64 %10, 0
  %or.cond = and i1 %44, %45
  br i1 %or.cond, label %46, label %49

46:                                               ; preds = %43
  %47 = call i32 @_sodium_argon2_encode_string(ptr noundef nonnull %9, i64 noundef %10, ptr noundef nonnull %13, i32 noundef %11) #9
  %.not52 = icmp eq i32 %47, 0
  br i1 %.not52, label %49, label %48

48:                                               ; preds = %46
  call void @sodium_memzero(ptr noundef nonnull %22, i64 noundef %8) #9
  call void @sodium_memzero(ptr noundef nonnull %9, i64 noundef %10) #9
  br label %.sink.split

49:                                               ; preds = %46, %43
  br i1 %.not, label %51, label %50

50:                                               ; preds = %49
  call void @llvm.memcpy.p0.p0.i64(ptr noundef nonnull align 1 %7, ptr noundef nonnull align 1 %22, i64 noundef range(i64 0, 4294967296) %8, i1 noundef false) #9
  br label %51

51:                                               ; preds = %50, %49
  call void @sodium_memzero(ptr noundef nonnull %22, i64 noundef %8) #9
  br label %.sink.split

.sink.split:                                      ; preds = %42, %48, %51
  %.0.ph = phi i32 [ 0, %51 ], [ -31, %48 ], [ %41, %42 ]
  call void @free(ptr noundef nonnull %22) #9
  br label %52

52:                                               ; preds = %.sink.split, %21, %19, %17, %15
  %.0 = phi i32 [ -5, %15 ], [ -3, %17 ], [ -7, %19 ], [ -22, %21 ], [ %.0.ph, %.sink.split ]
  call void @llvm.lifetime.end.p0(i64 96, ptr nonnull %13) #9
  ret i32 %.0
}